; Function Attrs: inlinehint nounwind uwtable
define internal void @_ZTv0_n24_N12_GLOBAL__N_112gzip_ostreamD0Ev(ptr noundef %0) unnamed_addr #26 align 2 personality ptr @__gxx_personality_v0 {
  %2 = load ptr, ptr %0, align 8, !tbaa !28
  %3 = getelementptr inbounds i8, ptr %2, i64 -24
  %4 = load i64, ptr %3, align 8
  %5 = getelementptr inbounds i8, ptr %0, i64 %4
  store ptr getelementptr inbounds nuw inrange(-24, 16) (i8, ptr @_ZTVN12_GLOBAL__N_112gzip_ostreamE, i64 24), ptr %5, align 8, !tbaa !28
  %6 = getelementptr inbounds nuw i8, ptr %5, i64 120
  store ptr getelementptr inbounds nuw inrange(-24, 16) (i8, ptr @_ZTVN12_GLOBAL__N_112gzip_ostreamE, i64 64), ptr %6, align 8, !tbaa !28
  %7 = getelementptr inbounds nuw i8, ptr %5, i64 8
  store ptr getelementptr inbounds nuw inrange(-16, 112) (i8, ptr @_ZTVN12_GLOBAL__N_112gzip_ostream14gzip_streambufE, i64 16), ptr %7, align 8, !tbaa !28
  %8 = invoke noundef i32 @_ZN12_GLOBAL__N_112gzip_ostream14gzip_streambuf4syncEv(ptr noundef nonnull align 8 dereferenceable(112) %7)
          to label %9 unwind label %23

9:                                                ; preds = %1
  %10 = getelementptr inbounds nuw i8, ptr %5, i64 112
  %11 = load ptr, ptr %10, align 8, !tbaa !204
  %12 = invoke i32 @gzclose(ptr noundef %11)
          to label %13 unwind label %23

13:                                               ; preds = %9
  store ptr getelementptr inbounds nuw inrange(-16, 112) (i8, ptr @_ZTVNSt7__cxx1115basic_stringbufIcSt11char_traitsIcESaIcEEE, i64 16), ptr %7, align 8, !tbaa !28
  %14 = getelementptr inbounds nuw i8, ptr %5, i64 80
  %15 = load ptr, ptr %14, align 8, !tbaa !19
  %16 = getelementptr inbounds nuw i8, ptr %5, i64 96
  %17 = icmp eq ptr %15, %16
  br i1 %17, label %_ZNKSt7__cxx1112basic_stringIcSt11char_traitsIcESaIcEE11_M_is_localEv.exit.thread.i.i.i.i.i.i.i, label %_ZNKSt7__cxx1112basic_stringIcSt11char_traitsIcESaIcEE11_M_is_localEv.exit.i.i.i.i.i.i.i

_ZNKSt7__cxx1112basic_stringIcSt11char_traitsIcESaIcEE11_M_is_localEv.exit.thread.i.i.i.i.i.i.i: ; preds = %13
  %18 = getelementptr inbounds nuw i8, ptr %5, i64 88
  %19 = load i64, ptr %18, align 8, !tbaa !23
  %20 = icmp ult i64 %19, 16
  tail call void @llvm.assume(i1 %20)
  br label %_ZN12_GLOBAL__N_112gzip_ostreamD0Ev.exit

_ZNKSt7__cxx1112basic_stringIcSt11char_traitsIcESaIcEE11_M_is_localEv.exit.i.i.i.i.i.i.i: ; preds = %13
  %21 = load i64, ptr %16, align 8, !tbaa !24
  %22 = add i64 %21, 1
  tail call void @_ZdlPvm(ptr noundef %15, i64 noundef %22) #38
  br label %_ZN12_GLOBAL__N_112gzip_ostreamD0Ev.exit

23:                                               ; preds = %9, %1
  %24 = landingpad { ptr, i32 }
          catch ptr null
  %25 = extractvalue { ptr, i32 } %24, 0
  tail call void @__clang_call_terminate(ptr %25) #37
  unreachable

_ZN12_GLOBAL__N_112gzip_ostreamD0Ev.exit:         ; preds = %_ZNKSt7__cxx1112basic_stringIcSt11char_traitsIcESaIcEE11_M_is_localEv.exit.thread.i.i.i.i.i.i.i, %_ZNKSt7__cxx1112basic_stringIcSt11char_traitsIcESaIcEE11_M_is_localEv.exit.i.i.i.i.i.i.i
  store ptr getelementptr inbounds nuw inrange(-16, 112) (i8, ptr @_ZTVSt15basic_streambufIcSt11char_traitsIcEE, i64 16), ptr %7, align 8, !tbaa !28
  %26 = getelementptr inbounds nuw i8, ptr %5, i64 64
  tail call void @_ZNSt6localeD1Ev(ptr noundef nonnull align 8 dereferenceable(8) %26) #39
  tail call void @_ZNSt8ios_baseD2Ev(ptr noundef nonnull align 8 dereferenceable(264) %6) #39
  tail call void @_ZdlPvm(ptr noundef nonnull align 8 dereferenceable(120) %5, i64 noundef 384) #38
  ret void
}